; Function Attrs: nofree nosync nounwind memory(readwrite, inaccessiblemem: none) uwtable
define i32 @Gia_ManCombMarkUsed_rec(ptr noundef %0, ptr noundef %1) local_unnamed_addr #0 {
  %3 = icmp eq ptr %1, null
  br i1 %3, label %73, label %4

4:                                                ; preds = %2
  %5 = load i64, ptr %1, align 4
  %6 = and i64 %5, 1073741824
  %.not = icmp eq i64 %6, 0
  br i1 %.not, label %73, label %7

7:                                                ; preds = %4
  %8 = and i64 %5, -1073741825
  store i64 %8, ptr %1, align 4
  %9 = and i64 %5, 536870911
  %10 = sub nsw i64 0, %9
  %11 = getelementptr inbounds %struct.Gia_Obj_t_, ptr %1, i64 %10
  %12 = tail call i32 @Gia_ManCombMarkUsed_rec(ptr noundef %0, ptr noundef nonnull %11)
  %13 = add nsw i32 %12, 1
  %14 = load i64, ptr %1, align 4
  %15 = lshr i64 %14, 32
  %16 = and i64 %15, 536870911
  %17 = sub nsw i64 0, %16
  %18 = getelementptr inbounds %struct.Gia_Obj_t_, ptr %1, i64 %17
  %19 = tail call i32 @Gia_ManCombMarkUsed_rec(ptr noundef %0, ptr noundef nonnull %18)
  %20 = add nsw i32 %13, %19
  %21 = getelementptr inbounds nuw i8, ptr %0, i64 200
  %22 = load ptr, ptr %21, align 8, !tbaa !3
  %.not22 = icmp eq ptr %22, null
  br i1 %.not22, label %36, label %Gia_ObjNextObj.exit

Gia_ObjNextObj.exit:                              ; preds = %7
  %23 = getelementptr i8, ptr %0, i64 32
  %.val = load ptr, ptr %23, align 8, !tbaa !28
  %24 = ptrtoint ptr %1 to i64
  %25 = ptrtoint ptr %.val to i64
  %26 = sub i64 %24, %25
  %27 = sdiv exact i64 %26, 12
  %sext = shl i64 %27, 32
  %28 = ashr exact i64 %sext, 30
  %29 = getelementptr inbounds i8, ptr %22, i64 %28
  %30 = load i32, ptr %29, align 4, !tbaa !29
  %31 = icmp eq i32 %30, 0
  %32 = sext i32 %30 to i64
  %33 = getelementptr inbounds %struct.Gia_Obj_t_, ptr %.val, i64 %32
  %34 = select i1 %31, ptr null, ptr %33
  %35 = tail call i32 @Gia_ManCombMarkUsed_rec(ptr noundef nonnull %0, ptr noundef %34)
  br label %36

36:                                               ; preds = %7, %Gia_ObjNextObj.exit
  %37 = phi i32 [ %35, %Gia_ObjNextObj.exit ], [ 0, %7 ]
  %38 = add nsw i32 %20, %37
  %39 = getelementptr inbounds nuw i8, ptr %0, i64 208
  %40 = load ptr, ptr %39, align 8, !tbaa !30
  %.not23 = icmp eq ptr %40, null
  br i1 %.not23, label %53, label %Gia_ObjSiblObj.exit

Gia_ObjSiblObj.exit:                              ; preds = %36
  %41 = getelementptr i8, ptr %0, i64 32
  %.val25 = load ptr, ptr %41, align 8, !tbaa !28
  %42 = ptrtoint ptr %1 to i64
  %43 = ptrtoint ptr %.val25 to i64
  %44 = sub i64 %42, %43
  %45 = sdiv exact i64 %44, 12
  %sext29 = shl i64 %45, 32
  %46 = ashr exact i64 %sext29, 30
  %47 = getelementptr inbounds i8, ptr %40, i64 %46
  %48 = load i32, ptr %47, align 4, !tbaa !29
  %.not6.i = icmp eq i32 %48, 0
  %49 = sext i32 %48 to i64
  %50 = getelementptr inbounds %struct.Gia_Obj_t_, ptr %.val25, i64 %49
  %51 = select i1 %.not6.i, ptr null, ptr %50
  %52 = tail call i32 @Gia_ManCombMarkUsed_rec(ptr noundef nonnull %0, ptr noundef %51)
  br label %53

53:                                               ; preds = %36, %Gia_ObjSiblObj.exit
  %54 = phi i32 [ %52, %Gia_ObjSiblObj.exit ], [ 0, %36 ]
  %55 = add nsw i32 %38, %54
  %56 = getelementptr inbounds nuw i8, ptr %0, i64 40
  %57 = load ptr, ptr %56, align 8, !tbaa !31
  %.not24 = icmp eq ptr %57, null
  br i1 %.not24, label %70, label %Gia_ObjFanin2.exit

Gia_ObjFanin2.exit:                               ; preds = %53
  %58 = getelementptr i8, ptr %0, i64 32
  %.val.i28 = load ptr, ptr %58, align 8, !tbaa !28
  %59 = ptrtoint ptr %1 to i64
  %60 = ptrtoint ptr %.val.i28 to i64
  %61 = sub i64 %59, %60
  %62 = sdiv exact i64 %61, 12
  %sext.i = shl i64 %62, 32
  %63 = ashr exact i64 %sext.i, 30
  %64 = getelementptr inbounds i8, ptr %57, i64 %63
  %65 = load i32, ptr %64, align 4, !tbaa !29
  %66 = ashr i32 %65, 1
  %67 = sext i32 %66 to i64
  %68 = getelementptr inbounds %struct.Gia_Obj_t_, ptr %.val.i28, i64 %67
  %69 = tail call i32 @Gia_ManCombMarkUsed_rec(ptr noundef nonnull %0, ptr noundef %68)
  br label %70

70:                                               ; preds = %53, %Gia_ObjFanin2.exit
  %71 = phi i32 [ %69, %Gia_ObjFanin2.exit ], [ 0, %53 ]
  %72 = add nsw i32 %55, %71
  br label %73

73:                                               ; preds = %4, %2, %70
  %.0 = phi i32 [ %72, %70 ], [ 0, %2 ], [ 0, %4 ]
  ret i32 %.0
}